target datalayout = "e-m:e-p270:32:32-p271:32:32-p272:64:64-i64:64-i128:128-f80:128-n8:16:32:64-S128"
target triple = "x86_64-unknown-linux-gnu"

%"class.std::vector.47" = type { %"struct.std::_Vector_base.48" }
%"struct.std::_Vector_base.48" = type { %"struct.std::_Vector_base<unsigned long, std::allocator<unsigned long>>::_Vector_impl" }
%"struct.std::_Vector_base<unsigned long, std::allocator<unsigned long>>::_Vector_impl" = type { %"struct.std::_Vector_base<unsigned long, std::allocator<unsigned long>>::_Vector_impl_data" }
%"struct.std::_Vector_base<unsigned long, std::allocator<unsigned long>>::_Vector_impl_data" = type { ptr, ptr, ptr }
%class.anon = type { ptr, ptr, ptr, ptr, ptr, ptr, ptr }
%class.anon.109 = type { ptr, ptr, ptr }
%"class.facebook::velox::DecodedVector" = type { i32, ptr, ptr, ptr, %"class.std::optional.95", ptr, i8, i8, i8, i8, i8, i32, %"class.std::vector.103", %"class.std::vector.47" }
%"class.std::optional.95" = type { %"struct.std::_Optional_base.96" }
%"struct.std::_Optional_base.96" = type { %"struct.std::_Optional_payload.98" }
%"struct.std::_Optional_payload.98" = type { %"struct.std::_Optional_payload_base.base.100", [7 x i8] }
%"struct.std::_Optional_payload_base.base.100" = type <{ %"union.std::_Optional_payload_base<const unsigned long *>::_Storage", i8 }>
%"union.std::_Optional_payload_base<const unsigned long *>::_Storage" = type { ptr }
%"class.std::vector.103" = type { %"struct.std::_Vector_base.104" }
%"struct.std::_Vector_base.104" = type { %"struct.std::_Vector_base<int, std::allocator<int>>::_Vector_impl" }
%"struct.std::_Vector_base<int, std::allocator<int>>::_Vector_impl" = type { %"struct.std::_Vector_base<int, std::allocator<int>>::_Vector_impl_data" }
%"struct.std::_Vector_base<int, std::allocator<int>>::_Vector_impl_data" = type { ptr, ptr, ptr }

; Function Attrs: mustprogress nounwind uwtable
define linkonce_odr noundef nonnull align 4 dereferenceable(4) ptr @_ZSt3minIiERKT_S2_S2_(ptr noundef nonnull align 4 dereferenceable(4) %__a, ptr noundef nonnull align 4 dereferenceable(4) %__b) #2 comdat {
entry:
  %retval = alloca ptr, align 8
  %__a.addr = alloca ptr, align 8
  %__b.addr = alloca ptr, align 8
  store ptr %__a, ptr %__a.addr, align 8
  store ptr %__b, ptr %__b.addr, align 8
  %0 = load ptr, ptr %__b.addr, align 8
  %1 = load i32, ptr %0, align 4
  %2 = load ptr, ptr %__a.addr, align 8
  %3 = load i32, ptr %2, align 4
  %cmp = icmp slt i32 %1, %3
  br i1 %cmp, label %if.then, label %if.end

if.then:                                          ; preds = %entry
  %4 = load ptr, ptr %__b.addr, align 8
  store ptr %4, ptr %retval, align 8
  br label %return

if.end:                                           ; preds = %entry
  %5 = load ptr, ptr %__a.addr, align 8
  store ptr %5, ptr %retval, align 8
  br label %return

return:                                           ; preds = %if.end, %if.then
  %6 = load ptr, ptr %retval, align 8
  ret ptr %6
}

; Function Attrs: mustprogress uwtable
define internal noundef i32 @_ZNK8facebook5velox9functions12_GLOBAL__N_113SliceFunction12adjustLengthEiiiPKiS5_S5_(ptr noundef nonnull align 8 dereferenceable(8) %this, i32 noundef %start, i32 noundef %length, i32 noundef %row, ptr noundef %rawSizes, ptr noundef %rawOffsets, ptr noundef %indices) #0 align 2 {
entry:
  %this.addr = alloca ptr, align 8
  %start.addr = alloca i32, align 4
  %length.addr = alloca i32, align 4
  %row.addr = alloca i32, align 4
  %rawSizes.addr = alloca ptr, align 8
  %rawOffsets.addr = alloca ptr, align 8
  %indices.addr = alloca ptr, align 8
  %endIndex = alloca i32, align 4
  %ref.tmp = alloca i32, align 4
  store ptr %this, ptr %this.addr, align 8
  store i32 %start, ptr %start.addr, align 4
  store i32 %length, ptr %length.addr, align 4
  store i32 %row, ptr %row.addr, align 4
  store ptr %rawSizes, ptr %rawSizes.addr, align 8
  store ptr %rawOffsets, ptr %rawOffsets.addr, align 8
  store ptr %indices, ptr %indices.addr, align 8
  %0 = load i32, ptr %length.addr, align 4
  %cmp = icmp slt i32 %0, 0
  br i1 %cmp, label %if.then, label %if.end

if.then:                                          ; preds = %entry
  call void @llvm.trap()
  br label %if.end

if.end:                                           ; preds = %if.then, %entry
  %1 = load ptr, ptr %rawOffsets.addr, align 8
  %2 = load ptr, ptr %indices.addr, align 8
  %3 = load i32, ptr %row.addr, align 4
  %idxprom = sext i32 %3 to i64
  %arrayidx = getelementptr inbounds i32, ptr %2, i64 %idxprom
  %4 = load i32, ptr %arrayidx, align 4
  %idxprom2 = sext i32 %4 to i64
  %arrayidx3 = getelementptr inbounds i32, ptr %1, i64 %idxprom2
  %5 = load i32, ptr %arrayidx3, align 4
  %6 = load ptr, ptr %rawSizes.addr, align 8
  %7 = load ptr, ptr %indices.addr, align 8
  %8 = load i32, ptr %row.addr, align 4
  %idxprom4 = sext i32 %8 to i64
  %arrayidx5 = getelementptr inbounds i32, ptr %7, i64 %idxprom4
  %9 = load i32, ptr %arrayidx5, align 4
  %idxprom6 = sext i32 %9 to i64
  %arrayidx7 = getelementptr inbounds i32, ptr %6, i64 %idxprom6
  %10 = load i32, ptr %arrayidx7, align 4
  %add = add nsw i32 %5, %10
  store i32 %add, ptr %endIndex, align 4
  %11 = load i32, ptr %endIndex, align 4
  %12 = load i32, ptr %start.addr, align 4
  %sub = sub nsw i32 %11, %12
  store i32 %sub, ptr %ref.tmp, align 4
  %call = call noundef nonnull align 4 dereferenceable(4) ptr @_ZSt3minIiERKT_S2_S2_(ptr noundef nonnull align 4 dereferenceable(4) %ref.tmp, ptr noundef nonnull align 4 dereferenceable(4) %length.addr)
  %13 = load i32, ptr %call, align 4
  ret i32 %13
}

; Function Attrs: mustprogress nounwind uwtable
define internal noundef i32 @_ZNK8facebook5velox9functions12_GLOBAL__N_113SliceFunction8getIndexEii(ptr noundef nonnull align 8 dereferenceable(8) %this, i32 noundef %start, i32 noundef %size) #2 align 2 {
entry:
  %retval = alloca i32, align 4
  %this.addr = alloca ptr, align 8
  %start.addr = alloca i32, align 4
  %size.addr = alloca i32, align 4
  store ptr %this, ptr %this.addr, align 8
  store i32 %start, ptr %start.addr, align 4
  store i32 %size, ptr %size.addr, align 4
  %0 = load i32, ptr %start.addr, align 4
  %cmp = icmp slt i32 %0, 0
  br i1 %cmp, label %if.then, label %if.end

if.then:                                          ; preds = %entry
  %1 = load i32, ptr %size.addr, align 4
  %2 = load i32, ptr %start.addr, align 4
  %add = add nsw i32 %2, %1
  store i32 %add, ptr %start.addr, align 4
  br label %if.end

if.end:                                           ; preds = %if.then, %entry
  %3 = load i32, ptr %start.addr, align 4
  %4 = load i32, ptr %size.addr, align 4
  %cmp2 = icmp sge i32 %3, %4
  br i1 %cmp2, label %if.then4, label %lor.lhs.false

lor.lhs.false:                                    ; preds = %if.end
  %5 = load i32, ptr %start.addr, align 4
  %cmp3 = icmp slt i32 %5, 0
  br i1 %cmp3, label %if.then4, label %if.end5

if.then4:                                         ; preds = %lor.lhs.false, %if.end
  store i32 -1, ptr %retval, align 4
  br label %return

if.end5:                                          ; preds = %lor.lhs.false
  %6 = load i32, ptr %start.addr, align 4
  store i32 %6, ptr %retval, align 4
  br label %return

return:                                           ; preds = %if.end5, %if.then4
  %7 = load i32, ptr %retval, align 4
  ret i32 %7
}

; Function Attrs: mustprogress nounwind uwtable
define linkonce_odr noundef i32 @_ZNK8facebook5velox13DecodedVector5indexEi(ptr noundef nonnull align 8 dereferenceable(120) %this, i32 noundef %idx) #2 comdat align 2 {
entry:
  %retval = alloca i32, align 4
  %this.addr = alloca ptr, align 8
  %idx.addr = alloca i32, align 4
  store ptr %this, ptr %this.addr, align 8
  store i32 %idx, ptr %idx.addr, align 4
  %this1 = load ptr, ptr %this.addr, align 8
  %isIdentityMapping_ = getelementptr inbounds %"class.facebook::velox::DecodedVector", ptr %this1, i32 0, i32 8
  %0 = load i8, ptr %isIdentityMapping_, align 2
  %tobool = trunc i8 %0 to i1
  br i1 %tobool, label %if.then, label %if.end

if.then:                                          ; preds = %entry
  %1 = load i32, ptr %idx.addr, align 4
  store i32 %1, ptr %retval, align 4
  br label %return

if.end:                                           ; preds = %entry
  %isConstantMapping_ = getelementptr inbounds %"class.facebook::velox::DecodedVector", ptr %this1, i32 0, i32 9
  %2 = load i8, ptr %isConstantMapping_, align 1
  %tobool2 = trunc i8 %2 to i1
  br i1 %tobool2, label %if.then3, label %if.end4

if.then3:                                         ; preds = %if.end
  %constantIndex_ = getelementptr inbounds %"class.facebook::velox::DecodedVector", ptr %this1, i32 0, i32 11
  %3 = load i32, ptr %constantIndex_, align 8
  store i32 %3, ptr %retval, align 4
  br label %return

if.end4:                                          ; preds = %if.end
  %indices_ = getelementptr inbounds %"class.facebook::velox::DecodedVector", ptr %this1, i32 0, i32 1
  %4 = load ptr, ptr %indices_, align 8
  %5 = load i32, ptr %idx.addr, align 4
  %idxprom = sext i32 %5 to i64
  %arrayidx = getelementptr inbounds i32, ptr %4, i64 %idxprom
  %6 = load i32, ptr %arrayidx, align 4
  store i32 %6, ptr %retval, align 4
  br label %return

return:                                           ; preds = %if.end4, %if.then3, %if.then
  %7 = load i32, ptr %retval, align 4
  ret i32 %7
}

; Function Attrs: mustprogress uwtable
define internal void @_ZZNK8facebook5velox9functions12_GLOBAL__N_113SliceFunction10applyArrayIlEESt10shared_ptrINS0_10BaseVectorEERKNS0_17SelectivityVectorERKSt6vectorIS7_SaIS7_EERNS0_4exec7EvalCtxERKS5_IKNS0_4TypeEEENKUliiE_clEii(ptr noundef nonnull align 8 dereferenceable(56) %this, i32 noundef %row, i32 noundef %adjustedStart) #0 align 2 {
entry:
  %this.addr = alloca ptr, align 8
  %row.addr = alloca i32, align 4
  %adjustedStart.addr = alloca i32, align 4
  %arraySize = alloca i32, align 4
  %index = alloca i32, align 4
  %start = alloca i32, align 4
  store ptr %this, ptr %this.addr, align 8
  store i32 %row, ptr %row.addr, align 4
  store i32 %adjustedStart, ptr %adjustedStart.addr, align 4
  %this1 = load ptr, ptr %this.addr, align 8
  %0 = getelementptr inbounds %class.anon, ptr %this1, i32 0, i32 2
  %1 = load ptr, ptr %0, align 8
  %2 = getelementptr inbounds %class.anon, ptr %this1, i32 0, i32 0
  %3 = load ptr, ptr %2, align 8
  %4 = load ptr, ptr %3, align 8
  %5 = getelementptr inbounds %class.anon, ptr %this1, i32 0, i32 1
  %6 = load ptr, ptr %5, align 8
  %7 = load ptr, ptr %6, align 8
  %8 = load i32, ptr %row.addr, align 4
  %idxprom = sext i32 %8 to i64
  %arrayidx = getelementptr inbounds i32, ptr %7, i64 %idxprom
  %9 = load i32, ptr %arrayidx, align 4
  %idxprom2 = sext i32 %9 to i64
  %arrayidx3 = getelementptr inbounds i32, ptr %4, i64 %idxprom2
  %10 = load i32, ptr %arrayidx3, align 4
  store i32 %10, ptr %arraySize, align 4
  %11 = load i32, ptr %adjustedStart.addr, align 4
  %12 = load i32, ptr %arraySize, align 4
  %call = call noundef i32 @_ZNK8facebook5velox9functions12_GLOBAL__N_113SliceFunction8getIndexEii(ptr noundef nonnull align 8 dereferenceable(8) %1, i32 noundef %11, i32 noundef %12)
  store i32 %call, ptr %index, align 4
  %13 = load i32, ptr %index, align 4
  %cmp = icmp ne i32 %13, -1
  br i1 %cmp, label %if.then, label %if.end

if.then:                                          ; preds = %entry
  %14 = getelementptr inbounds %class.anon, ptr %this1, i32 0, i32 3
  %15 = load ptr, ptr %14, align 8
  %16 = load ptr, ptr %15, align 8
  %17 = getelementptr inbounds %class.anon, ptr %this1, i32 0, i32 1
  %18 = load ptr, ptr %17, align 8
  %19 = load ptr, ptr %18, align 8
  %20 = load i32, ptr %row.addr, align 4
  %idxprom4 = sext i32 %20 to i64
  %arrayidx5 = getelementptr inbounds i32, ptr %19, i64 %idxprom4
  %21 = load i32, ptr %arrayidx5, align 4
  %idxprom6 = sext i32 %21 to i64
  %arrayidx7 = getelementptr inbounds i32, ptr %16, i64 %idxprom6
  %22 = load i32, ptr %arrayidx7, align 4
  %23 = load i32, ptr %index, align 4
  %add = add nsw i32 %22, %23
  store i32 %add, ptr %start, align 4
  %24 = load i32, ptr %start, align 4
  %25 = getelementptr inbounds %class.anon, ptr %this1, i32 0, i32 4
  %26 = load ptr, ptr %25, align 8
  %27 = load ptr, ptr %26, align 8
  %28 = load i32, ptr %row.addr, align 4
  %idxprom8 = sext i32 %28 to i64
  %arrayidx9 = getelementptr inbounds i32, ptr %27, i64 %idxprom8
  store i32 %24, ptr %arrayidx9, align 4
  %29 = load i32, ptr %start, align 4
  %30 = getelementptr inbounds %class.anon, ptr %this1, i32 0, i32 6
  %31 = load ptr, ptr %30, align 8
  %32 = load ptr, ptr %31, align 8
  %33 = load i32, ptr %row.addr, align 4
  %call10 = call noundef i64 @_ZNK8facebook5velox13DecodedVector7valueAtIlEET_i(ptr noundef nonnull align 8 dereferenceable(120) %32, i32 noundef %33)
  %conv = trunc i64 %call10 to i32
  %34 = load i32, ptr %row.addr, align 4
  %35 = getelementptr inbounds %class.anon, ptr %this1, i32 0, i32 0
  %36 = load ptr, ptr %35, align 8
  %37 = load ptr, ptr %36, align 8
  %38 = getelementptr inbounds %class.anon, ptr %this1, i32 0, i32 3
  %39 = load ptr, ptr %38, align 8
  %40 = load ptr, ptr %39, align 8
  %41 = getelementptr inbounds %class.anon, ptr %this1, i32 0, i32 1
  %42 = load ptr, ptr %41, align 8
  %43 = load ptr, ptr %42, align 8
  %call11 = call noundef i32 @_ZNK8facebook5velox9functions12_GLOBAL__N_113SliceFunction12adjustLengthEiiiPKiS5_S5_(ptr noundef nonnull align 8 dereferenceable(8) %1, i32 noundef %29, i32 noundef %conv, i32 noundef %34, ptr noundef %37, ptr noundef %40, ptr noundef %43)
  %44 = getelementptr inbounds %class.anon, ptr %this1, i32 0, i32 5
  %45 = load ptr, ptr %44, align 8
  %46 = load ptr, ptr %45, align 8
  %47 = load i32, ptr %row.addr, align 4
  %idxprom12 = sext i32 %47 to i64
  %arrayidx13 = getelementptr inbounds i32, ptr %46, i64 %idxprom12
  store i32 %call11, ptr %arrayidx13, align 4
  br label %if.end

if.end:                                           ; preds = %if.then, %entry
  ret void
}

; Function Attrs: mustprogress nounwind uwtable
define internal noundef i32 @_ZNK8facebook5velox9functions12_GLOBAL__N_113SliceFunction11adjustIndexEi(ptr noundef nonnull align 8 dereferenceable(8) %this, i32 noundef %index) #2 align 2 {
entry:
  %this.addr = alloca ptr, align 8
  %index.addr = alloca i32, align 4
  store ptr %this, ptr %this.addr, align 8
  store i32 %index, ptr %index.addr, align 4
  %0 = load i32, ptr %index.addr, align 4
  %cmp = icmp eq i32 %0, 0
  br i1 %cmp, label %if.then, label %if.end

if.then:                                          ; preds = %entry
  call void @llvm.trap()
  br label %if.end

if.end:                                           ; preds = %if.then, %entry
  %1 = load i32, ptr %index.addr, align 4
  %cmp2 = icmp sgt i32 %1, 0
  br i1 %cmp2, label %if.then3, label %if.end4

if.then3:                                         ; preds = %if.end
  %2 = load i32, ptr %index.addr, align 4
  %dec = add nsw i32 %2, -1
  store i32 %dec, ptr %index.addr, align 4
  br label %if.end4

if.end4:                                          ; preds = %if.then3, %if.end
  %3 = load i32, ptr %index.addr, align 4
  ret i32 %3
}

; Function Attrs: mustprogress uwtable
define linkonce_odr noundef i64 @_ZNK8facebook5velox13DecodedVector7valueAtIlEET_i(ptr noundef nonnull align 8 dereferenceable(120) %this, i32 noundef %idx) #0 comdat align 2 {
entry:
  %this.addr = alloca ptr, align 8
  %idx.addr = alloca i32, align 4
  store ptr %this, ptr %this.addr, align 8
  store i32 %idx, ptr %idx.addr, align 4
  %this1 = load ptr, ptr %this.addr, align 8
  %data_ = getelementptr inbounds %"class.facebook::velox::DecodedVector", ptr %this1, i32 0, i32 2
  %0 = load ptr, ptr %data_, align 8
  %1 = load i32, ptr %idx.addr, align 4
  %call = call noundef i32 @_ZNK8facebook5velox13DecodedVector5indexEi(ptr noundef nonnull align 8 dereferenceable(120) %this1, i32 noundef %1)
  %idxprom = sext i32 %call to i64
  %arrayidx = getelementptr inbounds i64, ptr %0, i64 %idxprom
  %2 = load i64, ptr %arrayidx, align 8
  ret i64 %2
}

; Function Attrs: mustprogress uwtable
define internal void @_ZZNK8facebook5velox9functions12_GLOBAL__N_113SliceFunction10applyArrayIlEESt10shared_ptrINS0_10BaseVectorEERKNS0_17SelectivityVectorERKSt6vectorIS7_SaIS7_EERNS0_4exec7EvalCtxERKS5_IKNS0_4TypeEEENKUlT_E0_clIiEEDaSO_(ptr noundef nonnull align 8 dereferenceable(24) %this, i32 noundef %row) #0 align 2 {
entry:
  %this.addr = alloca ptr, align 8
  %row.addr = alloca i32, align 4
  %adjustedStart = alloca i32, align 4
  store ptr %this, ptr %this.addr, align 8
  store i32 %row, ptr %row.addr, align 4
  %this1 = load ptr, ptr %this.addr, align 8
  %0 = getelementptr inbounds %class.anon.109, ptr %this1, i32 0, i32 0
  %1 = load ptr, ptr %0, align 8
  %2 = getelementptr inbounds %class.anon.109, ptr %this1, i32 0, i32 1
  %3 = load ptr, ptr %2, align 8
  %4 = load ptr, ptr %3, align 8
  %5 = load i32, ptr %row.addr, align 4
  %call = call noundef i64 @_ZNK8facebook5velox13DecodedVector7valueAtIlEET_i(ptr noundef nonnull align 8 dereferenceable(120) %4, i32 noundef %5)
  %conv = trunc i64 %call to i32
  %call2 = call noundef i32 @_ZNK8facebook5velox9functions12_GLOBAL__N_113SliceFunction11adjustIndexEi(ptr noundef nonnull align 8 dereferenceable(8) %1, i32 noundef %conv)
  store i32 %call2, ptr %adjustedStart, align 4
  %6 = getelementptr inbounds %class.anon.109, ptr %this1, i32 0, i32 2
  %7 = load ptr, ptr %6, align 8
  %8 = load i32, ptr %row.addr, align 4
  %9 = load i32, ptr %adjustedStart, align 4
  call void @_ZZNK8facebook5velox9functions12_GLOBAL__N_113SliceFunction10applyArrayIlEESt10shared_ptrINS0_10BaseVectorEERKNS0_17SelectivityVectorERKSt6vectorIS7_SaIS7_EERNS0_4exec7EvalCtxERKS5_IKNS0_4TypeEEENKUliiE_clEii(ptr noundef nonnull align 8 dereferenceable(56) %7, i32 noundef %8, i32 noundef %9)
  ret void
}