; Function Attrs: mustprogress nounwind memory(readwrite, inaccessiblemem: write) uwtable
define internal fastcc void @_ZZNK8facebook5velox9functions12_GLOBAL__N_113SliceFunction10applyArrayIlEESt10shared_ptrINS0_10BaseVectorEERKNS0_17SelectivityVectorERKSt6vectorIS7_SaIS7_EERNS0_4exec7EvalCtxERKS5_IKNS0_4TypeEEENKUlT_E0_clIiEEDaSO_(ptr nocapture readonly %this.8.val.0.val, ptr nocapture readonly %this.16.val, i32 noundef %row) unnamed_addr #16 align 2 {
entry:
  %data_.i = getelementptr inbounds i8, ptr %this.8.val.0.val, i64 16
  %0 = load ptr, ptr %data_.i, align 8
  %isIdentityMapping_.i.i = getelementptr inbounds i8, ptr %this.8.val.0.val, i64 58
  %1 = load i8, ptr %isIdentityMapping_.i.i, align 2
  %2 = and i8 %1, 1
  %tobool.not.i.i = icmp eq i8 %2, 0
  br i1 %tobool.not.i.i, label %if.end.i.i, label %_ZNK8facebook5velox13DecodedVector7valueAtIlEET_i.exit

if.end.i.i:                                       ; preds = %entry
  %isConstantMapping_.i.i = getelementptr inbounds i8, ptr %this.8.val.0.val, i64 59
  %3 = load i8, ptr %isConstantMapping_.i.i, align 1
  %4 = and i8 %3, 1
  %tobool2.not.i.i = icmp eq i8 %4, 0
  br i1 %tobool2.not.i.i, label %if.end4.i.i, label %if.then3.i.i

if.then3.i.i:                                     ; preds = %if.end.i.i
  %constantIndex_.i.i = getelementptr inbounds i8, ptr %this.8.val.0.val, i64 64
  %5 = load i32, ptr %constantIndex_.i.i, align 8
  br label %_ZNK8facebook5velox13DecodedVector7valueAtIlEET_i.exit

if.end4.i.i:                                      ; preds = %if.end.i.i
  %indices_.i.i = getelementptr inbounds i8, ptr %this.8.val.0.val, i64 8
  %6 = load ptr, ptr %indices_.i.i, align 8
  %idxprom.i.i = sext i32 %row to i64
  %arrayidx.i.i = getelementptr inbounds i32, ptr %6, i64 %idxprom.i.i
  %7 = load i32, ptr %arrayidx.i.i, align 4
  br label %_ZNK8facebook5velox13DecodedVector7valueAtIlEET_i.exit

_ZNK8facebook5velox13DecodedVector7valueAtIlEET_i.exit: ; preds = %entry, %if.then3.i.i, %if.end4.i.i
  %retval.0.i.i = phi i32 [ %5, %if.then3.i.i ], [ %7, %if.end4.i.i ], [ %row, %entry ]
  %idxprom.i = sext i32 %retval.0.i.i to i64
  %arrayidx.i = getelementptr inbounds i64, ptr %0, i64 %idxprom.i
  %8 = load i64, ptr %arrayidx.i, align 8
  %conv = trunc i64 %8 to i32
  %cmp.i = icmp eq i32 %conv, 0
  br i1 %cmp.i, label %if.then.i, label %_ZNK8facebook5velox9functions12_GLOBAL__N_113SliceFunction11adjustIndexEi.exit

if.then.i:                                        ; preds = %_ZNK8facebook5velox13DecodedVector7valueAtIlEET_i.exit
  tail call void @llvm.trap()
  unreachable

_ZNK8facebook5velox9functions12_GLOBAL__N_113SliceFunction11adjustIndexEi.exit: ; preds = %_ZNK8facebook5velox13DecodedVector7valueAtIlEET_i.exit
  %cmp2.i = icmp sgt i32 %conv, 0
  %dec.i = sext i1 %cmp2.i to i32
  %spec.select.i = add nsw i32 %dec.i, %conv
  %9 = load ptr, ptr %this.16.val, align 8
  %10 = load ptr, ptr %9, align 8
  %11 = getelementptr inbounds i8, ptr %this.16.val, i64 8
  %12 = load ptr, ptr %11, align 8
  %13 = load ptr, ptr %12, align 8
  %idxprom.i2 = sext i32 %row to i64
  %arrayidx.i3 = getelementptr inbounds i32, ptr %13, i64 %idxprom.i2
  %14 = load i32, ptr %arrayidx.i3, align 4
  %idxprom2.i = sext i32 %14 to i64
  %arrayidx3.i = getelementptr inbounds i32, ptr %10, i64 %idxprom2.i
  %15 = load i32, ptr %arrayidx3.i, align 4
  %cmp.i.i = icmp slt i32 %spec.select.i, 0
  %add.i.i = select i1 %cmp.i.i, i32 %15, i32 0
  %spec.select.i.i = add nsw i32 %add.i.i, %spec.select.i
  %cmp2.i.i = icmp sge i32 %spec.select.i.i, %15
  %cmp3.i.i = icmp slt i32 %spec.select.i.i, 0
  %or.cond.i.i = or i1 %cmp2.i.i, %cmp3.i.i
  br i1 %or.cond.i.i, label %_ZZNK8facebook5velox9functions12_GLOBAL__N_113SliceFunction10applyArrayIlEESt10shared_ptrINS0_10BaseVectorEERKNS0_17SelectivityVectorERKSt6vectorIS7_SaIS7_EERNS0_4exec7EvalCtxERKS5_IKNS0_4TypeEEENKUliiE_clEii.exit, label %if.then.i4

if.then.i4:                                       ; preds = %_ZNK8facebook5velox9functions12_GLOBAL__N_113SliceFunction11adjustIndexEi.exit
  %16 = getelementptr inbounds i8, ptr %this.16.val, i64 24
  %17 = load ptr, ptr %16, align 8
  %18 = load ptr, ptr %17, align 8
  %arrayidx7.i = getelementptr inbounds i32, ptr %18, i64 %idxprom2.i
  %19 = load i32, ptr %arrayidx7.i, align 4
  %add.i = add nsw i32 %19, %spec.select.i.i
  %20 = getelementptr inbounds i8, ptr %this.16.val, i64 32
  %21 = load ptr, ptr %20, align 8
  %22 = load ptr, ptr %21, align 8
  %arrayidx9.i = getelementptr inbounds i32, ptr %22, i64 %idxprom.i2
  store i32 %add.i, ptr %arrayidx9.i, align 4
  %23 = getelementptr inbounds i8, ptr %this.16.val, i64 48
  %24 = load ptr, ptr %23, align 8
  %25 = load ptr, ptr %24, align 8
  %data_.i.i = getelementptr inbounds i8, ptr %25, i64 16
  %26 = load ptr, ptr %data_.i.i, align 8
  %isIdentityMapping_.i.i.i = getelementptr inbounds i8, ptr %25, i64 58
  %27 = load i8, ptr %isIdentityMapping_.i.i.i, align 2
  %28 = and i8 %27, 1
  %tobool.not.i.i.i = icmp eq i8 %28, 0
  br i1 %tobool.not.i.i.i, label %if.end.i.i.i, label %_ZNK8facebook5velox13DecodedVector7valueAtIlEET_i.exit.i

if.end.i.i.i:                                     ; preds = %if.then.i4
  %isConstantMapping_.i.i.i = getelementptr inbounds i8, ptr %25, i64 59
  %29 = load i8, ptr %isConstantMapping_.i.i.i, align 1
  %30 = and i8 %29, 1
  %tobool2.not.i.i.i = icmp eq i8 %30, 0
  br i1 %tobool2.not.i.i.i, label %if.end4.i.i.i, label %if.then3.i.i.i

if.then3.i.i.i:                                   ; preds = %if.end.i.i.i
  %constantIndex_.i.i.i = getelementptr inbounds i8, ptr %25, i64 64
  %31 = load i32, ptr %constantIndex_.i.i.i, align 8
  br label %_ZNK8facebook5velox13DecodedVector7valueAtIlEET_i.exit.i

if.end4.i.i.i:                                    ; preds = %if.end.i.i.i
  %indices_.i.i.i = getelementptr inbounds i8, ptr %25, i64 8
  %32 = load ptr, ptr %indices_.i.i.i, align 8
  %arrayidx.i.i.i = getelementptr inbounds i32, ptr %32, i64 %idxprom.i2
  %33 = load i32, ptr %arrayidx.i.i.i, align 4
  br label %_ZNK8facebook5velox13DecodedVector7valueAtIlEET_i.exit.i

_ZNK8facebook5velox13DecodedVector7valueAtIlEET_i.exit.i: ; preds = %if.end4.i.i.i, %if.then3.i.i.i, %if.then.i4
  %retval.0.i.i.i = phi i32 [ %31, %if.then3.i.i.i ], [ %33, %if.end4.i.i.i ], [ %row, %if.then.i4 ]
  %idxprom.i.i5 = sext i32 %retval.0.i.i.i to i64
  %arrayidx.i.i6 = getelementptr inbounds i64, ptr %26, i64 %idxprom.i.i5
  %34 = load i64, ptr %arrayidx.i.i6, align 8
  %conv.i = trunc i64 %34 to i32
  %cmp.i8.i = icmp slt i32 %conv.i, 0
  br i1 %cmp.i8.i, label %if.then.i.i, label %_ZNK8facebook5velox9functions12_GLOBAL__N_113SliceFunction12adjustLengthEiiiPKiS5_S5_.exit.i

if.then.i.i:                                      ; preds = %_ZNK8facebook5velox13DecodedVector7valueAtIlEET_i.exit.i
  tail call void @llvm.trap()
  unreachable

_ZNK8facebook5velox9functions12_GLOBAL__N_113SliceFunction12adjustLengthEiiiPKiS5_S5_.exit.i: ; preds = %_ZNK8facebook5velox13DecodedVector7valueAtIlEET_i.exit.i
  %35 = load ptr, ptr %11, align 8
  %36 = load ptr, ptr %35, align 8
  %37 = load ptr, ptr %16, align 8
  %38 = load ptr, ptr %37, align 8
  %39 = load ptr, ptr %this.16.val, align 8
  %40 = load ptr, ptr %39, align 8
  %arrayidx.i10.i = getelementptr inbounds i32, ptr %36, i64 %idxprom.i2
  %41 = load i32, ptr %arrayidx.i10.i, align 4
  %idxprom2.i.i = sext i32 %41 to i64
  %arrayidx3.i.i = getelementptr inbounds i32, ptr %38, i64 %idxprom2.i.i
  %42 = load i32, ptr %arrayidx3.i.i, align 4
  %arrayidx7.i.i = getelementptr inbounds i32, ptr %40, i64 %idxprom2.i.i
  %43 = load i32, ptr %arrayidx7.i.i, align 4
  %add.i11.i = sub i32 %42, %add.i
  %sub.i.i = add i32 %add.i11.i, %43
  %.sroa.speculated.i.i = tail call noundef i32 @llvm.smin.i32(i32 %sub.i.i, i32 %conv.i)
  %44 = getelementptr inbounds i8, ptr %this.16.val, i64 40
  %45 = load ptr, ptr %44, align 8
  %46 = load ptr, ptr %45, align 8
  %arrayidx13.i = getelementptr inbounds i32, ptr %46, i64 %idxprom.i2
  store i32 %.sroa.speculated.i.i, ptr %arrayidx13.i, align 4
  br label %_ZZNK8facebook5velox9functions12_GLOBAL__N_113SliceFunction10applyArrayIlEESt10shared_ptrINS0_10BaseVectorEERKNS0_17SelectivityVectorERKSt6vectorIS7_SaIS7_EERNS0_4exec7EvalCtxERKS5_IKNS0_4TypeEEENKUliiE_clEii.exit

_ZZNK8facebook5velox9functions12_GLOBAL__N_113SliceFunction10applyArrayIlEESt10shared_ptrINS0_10BaseVectorEERKNS0_17SelectivityVectorERKSt6vectorIS7_SaIS7_EERNS0_4exec7EvalCtxERKS5_IKNS0_4TypeEEENKUliiE_clEii.exit: ; preds = %_ZNK8facebook5velox9functions12_GLOBAL__N_113SliceFunction11adjustIndexEi.exit, %_ZNK8facebook5velox9functions12_GLOBAL__N_113SliceFunction12adjustLengthEiiiPKiS5_S5_.exit.i
  ret void
}